; Function Attrs: mustprogress nofree norecurse nosync nounwind willreturn memory(read, inaccessiblemem: none) uwtable
define dso_local noundef zeroext range(i8 0, 28) i8 @_ZN5clang17computeDependenceEPNS_17ArrayInitLoopExprE(ptr noundef readonly captures(none) %0) local_unnamed_addr #0 {
  %2 = getelementptr inbounds nuw i8, ptr %0, i64 16
  %3 = load ptr, ptr %2, align 8
  %4 = getelementptr inbounds nuw i8, ptr %3, i64 1
  %5 = load i16, ptr %4, align 1
  %6 = getelementptr inbounds nuw i8, ptr %0, i64 24
  %7 = load ptr, ptr %6, align 8
  %8 = getelementptr inbounds nuw i8, ptr %7, i64 1
  %9 = load i16, ptr %8, align 1
  %10 = or i16 %9, %5
  %11 = lshr i16 %10, 5
  %12 = trunc i16 %11 to i8
  %13 = and i8 %12, 25
  %14 = getelementptr inbounds nuw i8, ptr %0, i64 8
  %.sroa.0.0.copyload.i = load i64, ptr %14, align 8
  %15 = and i64 %.sroa.0.0.copyload.i, -16
  %16 = inttoptr i64 %15 to ptr
  %17 = load ptr, ptr %16, align 16
  %18 = getelementptr inbounds nuw i8, ptr %17, i64 17
  %19 = load i16, ptr %18, align 1
  %20 = trunc i16 %19 to i8
  %21 = and i8 %20, 2
  %spec.select = or disjoint i8 %21, %13
  ret i8 %spec.select
}